; Function Attrs: null_pointer_is_valid sspstrong uwtable
define hidden void @nvme_publish_to_data_resp_link(ptr noundef %0, ptr noundef %1, i32 noundef %2, ptr noundef readonly captures(none) %3) local_unnamed_addr #0 {
  %5 = getelementptr inbounds nuw i8, ptr %3, i64 12
  %6 = load i32, ptr %5, align 4
  %.not.i.not = icmp eq i32 %6, 0
  br i1 %.not.i.not, label %nvme_publish_link.exit, label %7

7:                                                ; preds = %4
  %8 = tail call ptr @proto_tree_add_uint(ptr noundef %0, i32 noundef %2, ptr noundef %1, i32 noundef 0, i32 noundef 0, i32 noundef %6)
  %.not.i.i = icmp eq ptr %8, null
  br i1 %.not.i.i, label %nvme_publish_link.exit, label %9

9:                                                ; preds = %7
  %10 = getelementptr inbounds nuw i8, ptr %8, i64 40
  %11 = load ptr, ptr %10, align 8
  %.not5.i.i = icmp eq ptr %11, null
  br i1 %.not5.i.i, label %nvme_publish_link.exit, label %12

12:                                               ; preds = %9
  %13 = getelementptr inbounds nuw i8, ptr %11, i64 28
  %14 = load i32, ptr %13, align 4
  %15 = or i32 %14, 2
  store i32 %15, ptr %13, align 4
  br label %nvme_publish_link.exit

nvme_publish_link.exit:                           ; preds = %4, %7, %9, %12
  ret void
}